target datalayout = "e-m:e-p270:32:32-p271:32:32-p272:64:64-i64:64-i128:128-f80:128-n8:16:32:64-S128"
target triple = "x86_64-pc-linux-gnu"

%"class.cv::Mat" = type { i32, i32, i32, i32, ptr, ptr, ptr, ptr, ptr, ptr, %"struct.cv::MatSize", %"struct.cv::MatStep" }
%"struct.cv::MatSize" = type { ptr }
%"struct.cv::MatStep" = type { ptr, [2 x i64] }
%"class.cv::xfeatures2d::VGG_Impl" = type { %"class.cv::xfeatures2d::VGG", i32, float, i32, float, i8, i8, i8, %"class.cv::Mat", %"class.cv::Mat", %"class.cv::Mat" }
%"class.cv::xfeatures2d::VGG" = type { %"class.cv::Feature2D" }
%"class.cv::Feature2D" = type { %"class.cv::Algorithm" }
%"class.cv::Algorithm" = type { ptr }

; Function Attrs: inlinehint mustprogress nounwind uwtable
define linkonce_odr hidden void @_ZN2cv11xfeatures2d3VGGD2Ev(ptr noundef nonnull align 8 dereferenceable(8) %0, ptr noundef %1) unnamed_addr #5 comdat align 2 {
  %3 = alloca ptr, align 8
  %4 = alloca ptr, align 8
  store ptr %0, ptr %3, align 8, !tbaa !89
  store ptr %1, ptr %4, align 8, !tbaa !86
  %5 = load ptr, ptr %3, align 8
  %6 = load ptr, ptr %4, align 8
  %7 = getelementptr inbounds ptr, ptr %6, i64 1
  call void @_ZN2cv9Feature2DD2Ev(ptr noundef nonnull align 8 dereferenceable(8) %5, ptr noundef %7) #20
  ret void
}

; Function Attrs: mustprogress nounwind uwtable
define hidden void @_ZN2cv11xfeatures2d8VGG_ImplD2Ev(ptr noundef nonnull align 8 dereferenceable(320) %0, ptr noundef %1) unnamed_addr #7 align 2 {
  %3 = alloca ptr, align 8
  %4 = alloca ptr, align 8
  store ptr %0, ptr %3, align 8, !tbaa !3
  store ptr %1, ptr %4, align 8, !tbaa !86
  %5 = load ptr, ptr %3, align 8
  %6 = load ptr, ptr %4, align 8
  %7 = getelementptr inbounds nuw %"class.cv::xfeatures2d::VGG_Impl", ptr %5, i32 0, i32 10
  call void @_ZN2cv3MatD1Ev(ptr noundef nonnull align 8 dereferenceable(96) %7) #20
  %8 = getelementptr inbounds nuw %"class.cv::xfeatures2d::VGG_Impl", ptr %5, i32 0, i32 9
  call void @_ZN2cv3MatD1Ev(ptr noundef nonnull align 8 dereferenceable(96) %8) #20
  %9 = getelementptr inbounds nuw %"class.cv::xfeatures2d::VGG_Impl", ptr %5, i32 0, i32 8
  call void @_ZN2cv3MatD1Ev(ptr noundef nonnull align 8 dereferenceable(96) %9) #20
  %10 = getelementptr inbounds ptr, ptr %6, i64 1
  call void @_ZN2cv11xfeatures2d3VGGD2Ev(ptr noundef nonnull align 8 dereferenceable(8) %5, ptr noundef %10) #20
  ret void
}

; Function Attrs: mustprogress nounwind uwtable
define hidden void @_ZN2cv11xfeatures2d8VGG_ImplD1Ev(ptr noundef nonnull align 8 dereferenceable(320) %0) unnamed_addr #7 align 2 {
  %2 = alloca ptr, align 8
  store ptr %0, ptr %2, align 8, !tbaa !3
  %3 = load ptr, ptr %2, align 8
  call void @_ZN2cv11xfeatures2d8VGG_ImplD2Ev(ptr noundef nonnull align 8 dereferenceable(320) %3, ptr noundef @_ZTTN2cv11xfeatures2d8VGG_ImplE) #20
  call void @_ZN2cv9AlgorithmD2Ev(ptr noundef nonnull align 8 dereferenceable(8) %3) #20
  ret void
}

; Function Attrs: mustprogress nounwind uwtable
define hidden void @_ZN2cv11xfeatures2d8VGG_ImplD0Ev(ptr noundef nonnull align 8 dereferenceable(320) %0) unnamed_addr #7 align 2 {
  %2 = alloca ptr, align 8
  store ptr %0, ptr %2, align 8, !tbaa !3
  %3 = load ptr, ptr %2, align 8
  call void @_ZN2cv11xfeatures2d8VGG_ImplD1Ev(ptr noundef nonnull align 8 dereferenceable(320) %3) #20
  call void @_ZdlPv(ptr noundef %3) #23
  ret void
}

; Function Attrs: nounwind uwtable
define hidden void @_ZTv0_n24_N2cv11xfeatures2d8VGG_ImplD0Ev(ptr noundef %0) unnamed_addr #8 align 2 {
  %2 = alloca ptr, align 8
  store ptr %0, ptr %2, align 8, !tbaa !3
  %3 = load ptr, ptr %2, align 8
  %4 = load ptr, ptr %3, align 8, !tbaa !72
  %5 = getelementptr inbounds i8, ptr %4, i64 -24
  %6 = load i64, ptr %5, align 8
  %7 = getelementptr inbounds i8, ptr %3, i64 %6
  tail call void @_ZN2cv11xfeatures2d8VGG_ImplD0Ev(ptr noundef nonnull align 8 dereferenceable(320) %7) #20
  ret void
}